; Function Attrs: mustprogress null_pointer_is_valid sspstrong uwtable
define void @_ZN10TrafficTab9setFilterE7QString(ptr noundef align 8 dereferenceable_or_null(130) %0, ptr noundef readonly captures(none) %1) local_unnamed_addr #3 align 2 personality ptr @__gxx_personality_v0 {
  %3 = alloca %class.QString, align 8
  %4 = tail call noundef i32 @_ZNK10QTabWidget5countEv(ptr noundef align 8 dereferenceable_or_null(40) %0)
  %5 = icmp sgt i32 %4, 0
  br i1 %5, label %.lr.ph, label %._crit_edge

.lr.ph:                                           ; preds = %2
  %6 = getelementptr inbounds nuw i8, ptr %3, i64 8
  %7 = getelementptr inbounds nuw i8, ptr %1, i64 8
  %8 = getelementptr inbounds nuw i8, ptr %3, i64 16
  %9 = getelementptr inbounds nuw i8, ptr %1, i64 16
  br label %_ZN10TrafficTab20dataModelForTabIndexEi.exit

._crit_edge:                                      ; preds = %_ZN7QStringD2Ev.exit, %2
  ret void

_ZN10TrafficTab20dataModelForTabIndexEi.exit:     ; preds = %_ZN7QStringD2Ev.exit, %.lr.ph
  %.013 = phi i32 [ 0, %.lr.ph ], [ %23, %_ZN7QStringD2Ev.exit ]
  %10 = call noundef ptr @_ZNK10QTabWidget6widgetEi(ptr noundef align 8 dereferenceable_or_null(130) %0, i32 noundef %.013)
  %11 = call noundef ptr @_ZN10TrafficTab18dataModelForWidgetEP7QWidget(ptr align 8 poison, ptr noundef %10)
  %.not = icmp eq ptr %11, null
  br i1 %.not, label %_ZN7QStringD2Ev.exit, label %12

12:                                               ; preds = %_ZN10TrafficTab20dataModelForTabIndexEi.exit
  %13 = load ptr, ptr %1, align 8
  store ptr %13, ptr %3, align 8
  %14 = load ptr, ptr %7, align 8
  store ptr %14, ptr %6, align 8
  %15 = load i64, ptr %9, align 8
  store i64 %15, ptr %8, align 8
  %.not.i.i.i = icmp eq ptr %13, null
  br i1 %.not.i.i.i, label %_ZN7QStringC2ERKS_.exit, label %16

16:                                               ; preds = %12
  %17 = atomicrmw add ptr %13, i32 1 seq_cst, align 4
  br label %_ZN7QStringC2ERKS_.exit

_ZN7QStringC2ERKS_.exit:                          ; preds = %12, %16
  invoke void @_ZN13ATapDataModel9setFilterE7QString(ptr noundef nonnull align 8 dereferenceable_or_null(120) %11, ptr noundef nonnull %3)
          to label %18 unwind label %26

18:                                               ; preds = %_ZN7QStringC2ERKS_.exit
  %19 = load ptr, ptr %3, align 8
  %.not.i.i.i8 = icmp eq ptr %19, null
  br i1 %.not.i.i.i8, label %_ZN7QStringD2Ev.exit, label %_ZN17QArrayDataPointerIDsE5derefEv.exit.i.i

_ZN17QArrayDataPointerIDsE5derefEv.exit.i.i:      ; preds = %18
  %20 = atomicrmw sub ptr %19, i32 1 seq_cst, align 4
  %.not.i.i = icmp eq i32 %20, 1
  br i1 %.not.i.i, label %21, label %_ZN7QStringD2Ev.exit

21:                                               ; preds = %_ZN17QArrayDataPointerIDsE5derefEv.exit.i.i
  %22 = load ptr, ptr %3, align 8
  call void @_ZN10QArrayData10deallocateEPS_xx(ptr noundef %22, i64 noundef 2, i64 noundef 8) #25
  br label %_ZN7QStringD2Ev.exit

_ZN7QStringD2Ev.exit:                             ; preds = %21, %_ZN17QArrayDataPointerIDsE5derefEv.exit.i.i, %18, %_ZN10TrafficTab20dataModelForTabIndexEi.exit
  %23 = add nuw nsw i32 %.013, 1
  %24 = call noundef i32 @_ZNK10QTabWidget5countEv(ptr noundef align 8 dereferenceable_or_null(40) %0)
  %25 = icmp slt i32 %23, %24
  br i1 %25, label %_ZN10TrafficTab20dataModelForTabIndexEi.exit, label %._crit_edge, !llvm.loop !143

26:                                               ; preds = %_ZN7QStringC2ERKS_.exit
  %27 = landingpad { ptr, i32 }
          cleanup
  %28 = load ptr, ptr %3, align 8
  %.not.i.i.i9 = icmp eq ptr %28, null
  br i1 %.not.i.i.i9, label %_ZN7QStringD2Ev.exit12, label %_ZN17QArrayDataPointerIDsE5derefEv.exit.i.i10

_ZN17QArrayDataPointerIDsE5derefEv.exit.i.i10:    ; preds = %26
  %29 = atomicrmw sub ptr %28, i32 1 seq_cst, align 4
  %.not.i.i11 = icmp eq i32 %29, 1
  br i1 %.not.i.i11, label %30, label %_ZN7QStringD2Ev.exit12

30:                                               ; preds = %_ZN17QArrayDataPointerIDsE5derefEv.exit.i.i10
  %31 = load ptr, ptr %3, align 8
  call void @_ZN10QArrayData10deallocateEPS_xx(ptr noundef %31, i64 noundef 2, i64 noundef 8) #25
  br label %_ZN7QStringD2Ev.exit12

_ZN7QStringD2Ev.exit12:                           ; preds = %26, %_ZN17QArrayDataPointerIDsE5derefEv.exit.i.i10, %30
  resume { ptr, i32 } %27
}